ccopy_reg
_reconstructor
p0
(cgoogle.oauth2.credentials
Credentials
p1
c__builtin__
object
p2
Ntp3
Rp4
(dp5
S'_quota_project_id'
p6
NsS'_token_uri'
p7
Vhttps://oauth2.googleapis.com/token
p8
sS'_client_secret'
p9
VTjAQ4lCpiQRxwzXXybegvy6U
p10
sS'_default_scopes'
p11
NsS'expiry'
p12
cdatetime
datetime
p13
(S'\x07\xe5\x07\x01\x07\x15,\x00Y\xc8'
p14
tp15
Rp16
sS'token'
p17
Vya29.a0ARrdaM80OfxEtTf0NlzHtzs-s9ml3jEZCkfCQxAzlXFnHdbpNAYIPt-jxQIPug2uh0M0oDbtOn6BJ3AP_erM-6nZtshOOxvZgpb4uXfIWGh9FDCZGdhpp9s2_iPbnDkRyO31jsHyQrLlO2cSBlh_sAG94xPk
p18
sS'_refresh_token'
p19
V1//0gR8kt9hIvNoICgYIARAAGBASNwF-L9Irf1NeWYSJf_duLBSzFI1XM1CRRWr8IAcL8hDqlnowa2JEqiknlzi27VlqrG5zjhZ-2Jk
p20
sS'_scopes'
p21
(lp22
S'https://www.googleapis.com/auth/drive'
p23
asS'_client_id'
p24
V857353480006-nvcltdkmpdfbagrco67jb2e7mcbujode.apps.googleusercontent.com
p25
sS'_id_token'
p26
NsS'_rapt_token'
p27
Nsb.